target datalayout = "e-m:e-p270:32:32-p271:32:32-p272:64:64-i64:64-i128:128-f80:128-n8:16:32:64-S128"
target triple = "x86_64-pc-linux-gnu"

; Function Attrs: nounwind uwtable
define void @Gia_ManSortUnates(ptr noundef %0, ptr noundef %1, i32 noundef %2, ptr noundef %3, ptr noundef %4, ptr noundef %5) #0 {
  %7 = alloca ptr, align 8
  %8 = alloca ptr, align 8
  %9 = alloca i32, align 4
  %10 = alloca ptr, align 8
  %11 = alloca ptr, align 8
  %12 = alloca ptr, align 8
  %13 = alloca i32, align 4
  store ptr %0, ptr %7, align 8, !tbaa !150
  store ptr %1, ptr %8, align 8, !tbaa !80
  store i32 %2, ptr %9, align 4, !tbaa !10
  store ptr %3, ptr %10, align 8, !tbaa !125
  store ptr %4, ptr %11, align 8, !tbaa !125
  store ptr %5, ptr %12, align 8, !tbaa !40
  call void @llvm.lifetime.start.p0(i64 4, ptr %13) #14
  store i32 0, ptr %13, align 4, !tbaa !10
  br label %14

14:                                               ; preds = %44, %6
  %15 = load i32, ptr %13, align 4, !tbaa !10
  %16 = icmp slt i32 %15, 2
  br i1 %16, label %17, label %47

17:                                               ; preds = %14
  %18 = load ptr, ptr %7, align 8, !tbaa !150
  %19 = load i32, ptr %13, align 4, !tbaa !10
  %20 = sext i32 %19 to i64
  %21 = getelementptr inbounds ptr, ptr %18, i64 %20
  %22 = load ptr, ptr %21, align 8, !tbaa !76
  %23 = load ptr, ptr %7, align 8, !tbaa !150
  %24 = load i32, ptr %13, align 4, !tbaa !10
  %25 = icmp ne i32 %24, 0
  %26 = xor i1 %25, true
  %27 = zext i1 %26 to i32
  %28 = sext i32 %27 to i64
  %29 = getelementptr inbounds ptr, ptr %23, i64 %28
  %30 = load ptr, ptr %29, align 8, !tbaa !76
  %31 = load ptr, ptr %8, align 8, !tbaa !80
  %32 = load i32, ptr %9, align 4, !tbaa !10
  %33 = load ptr, ptr %10, align 8, !tbaa !125
  %34 = load i32, ptr %13, align 4, !tbaa !10
  %35 = sext i32 %34 to i64
  %36 = getelementptr inbounds ptr, ptr %33, i64 %35
  %37 = load ptr, ptr %36, align 8, !tbaa !12
  %38 = load ptr, ptr %11, align 8, !tbaa !125
  %39 = load i32, ptr %13, align 4, !tbaa !10
  %40 = sext i32 %39 to i64
  %41 = getelementptr inbounds ptr, ptr %38, i64 %40
  %42 = load ptr, ptr %41, align 8, !tbaa !12
  %43 = load ptr, ptr %12, align 8, !tbaa !40
  call void @Gia_ManSortUnatesInt(ptr noundef %22, ptr noundef %30, ptr noundef %31, i32 noundef %32, ptr noundef %37, ptr noundef %42, ptr noundef %43)
  br label %44

44:                                               ; preds = %17
  %45 = load i32, ptr %13, align 4, !tbaa !10
  %46 = add nsw i32 %45, 1
  store i32 %46, ptr %13, align 4, !tbaa !10
  br label %14, !llvm.loop !191

47:                                               ; preds = %14
  call void @llvm.lifetime.end.p0(i64 4, ptr %13) #14
  ret void
}