; Function Attrs: nounwind uwtable
define void @Gia_ManSortUnates(ptr noundef readonly captures(none) %0, ptr noundef readonly captures(none) %1, i32 noundef %2, ptr noundef readonly captures(none) %3, ptr noundef readonly captures(none) %4, ptr noundef captures(none) initializes((4, 8)) %5) local_unnamed_addr #0 {
.critedge:
  %6 = getelementptr inbounds nuw i8, ptr %0, i64 8
  %7 = load ptr, ptr %6, align 8, !tbaa !78
  %8 = load ptr, ptr %3, align 8, !tbaa !69
  %9 = load ptr, ptr %4, align 8, !tbaa !69
  tail call void @Gia_ManSortUnatesInt(ptr poison, ptr noundef %7, ptr noundef %1, i32 noundef %2, ptr noundef %8, ptr noundef %9, ptr noundef %5)
  %10 = load ptr, ptr %0, align 8, !tbaa !78
  %11 = getelementptr inbounds nuw i8, ptr %3, i64 8
  %12 = load ptr, ptr %11, align 8, !tbaa !69
  %13 = getelementptr inbounds nuw i8, ptr %4, i64 8
  %14 = load ptr, ptr %13, align 8, !tbaa !69
  tail call void @Gia_ManSortUnatesInt(ptr poison, ptr noundef %10, ptr noundef %1, i32 noundef %2, ptr noundef %12, ptr noundef %14, ptr noundef %5)
  ret void
}